target datalayout = "e-m:e-p270:32:32-p271:32:32-p272:64:64-i64:64-i128:128-f80:128-n8:16:32:64-S128"
target triple = "x86_64-pc-linux-gnu"

%struct.Ivy_Obj_t_ = type { i32, i32, i32, i32, ptr, ptr, ptr, ptr, ptr, ptr, ptr, ptr }

; Function Attrs: inlinehint nounwind uwtable
define internal ptr @Ivy_Regular(ptr noundef %0) #1 {
  %2 = alloca ptr, align 8
  store ptr %0, ptr %2, align 8, !tbaa !8
  %3 = load ptr, ptr %2, align 8, !tbaa !8
  %4 = ptrtoint ptr %3 to i64
  %5 = and i64 %4, -2
  %6 = inttoptr i64 %5 to ptr
  ret ptr %6
}

; Function Attrs: inlinehint nounwind uwtable
define internal ptr @Ivy_ObjFanin1(ptr noundef %0) #1 {
  %2 = alloca ptr, align 8
  store ptr %0, ptr %2, align 8, !tbaa !8
  %3 = load ptr, ptr %2, align 8, !tbaa !8
  %4 = getelementptr inbounds nuw %struct.Ivy_Obj_t_, ptr %3, i32 0, i32 5
  %5 = load ptr, ptr %4, align 8, !tbaa !22
  %6 = call ptr @Ivy_Regular(ptr noundef %5)
  ret ptr %6
}

; Function Attrs: inlinehint nounwind uwtable
define internal ptr @Ivy_ObjFanin0(ptr noundef %0) #1 {
  %2 = alloca ptr, align 8
  store ptr %0, ptr %2, align 8, !tbaa !8
  %3 = load ptr, ptr %2, align 8, !tbaa !8
  %4 = getelementptr inbounds nuw %struct.Ivy_Obj_t_, ptr %3, i32 0, i32 4
  %5 = load ptr, ptr %4, align 8, !tbaa !21
  %6 = call ptr @Ivy_Regular(ptr noundef %5)
  ret ptr %6
}

; Function Attrs: inlinehint nounwind uwtable
define internal i32 @Ivy_ObjIsExor(ptr noundef %0) #1 {
  %2 = alloca ptr, align 8
  store ptr %0, ptr %2, align 8, !tbaa !8
  %3 = load ptr, ptr %2, align 8, !tbaa !8
  %4 = getelementptr inbounds nuw %struct.Ivy_Obj_t_, ptr %3, i32 0, i32 2
  %5 = load i32, ptr %4, align 8
  %6 = and i32 %5, 15
  %7 = icmp eq i32 %6, 6
  %8 = zext i1 %7 to i32
  ret i32 %8
}

; Function Attrs: inlinehint nounwind uwtable
define internal i32 @Ivy_ObjLevelNew(ptr noundef %0) #1 {
  %2 = alloca ptr, align 8
  store ptr %0, ptr %2, align 8, !tbaa !8
  %3 = load ptr, ptr %2, align 8, !tbaa !8
  %4 = call i32 @Ivy_ObjIsExor(ptr noundef %3)
  %5 = add nsw i32 1, %4
  %6 = load ptr, ptr %2, align 8, !tbaa !8
  %7 = call ptr @Ivy_ObjFanin0(ptr noundef %6)
  %8 = getelementptr inbounds nuw %struct.Ivy_Obj_t_, ptr %7, i32 0, i32 2
  %9 = load i32, ptr %8, align 8
  %10 = lshr i32 %9, 11
  %11 = load ptr, ptr %2, align 8, !tbaa !8
  %12 = call ptr @Ivy_ObjFanin1(ptr noundef %11)
  %13 = getelementptr inbounds nuw %struct.Ivy_Obj_t_, ptr %12, i32 0, i32 2
  %14 = load i32, ptr %13, align 8
  %15 = lshr i32 %14, 11
  %16 = icmp sgt i32 %10, %15
  br i1 %16, label %17, label %23

17:                                               ; preds = %1
  %18 = load ptr, ptr %2, align 8, !tbaa !8
  %19 = call ptr @Ivy_ObjFanin0(ptr noundef %18)
  %20 = getelementptr inbounds nuw %struct.Ivy_Obj_t_, ptr %19, i32 0, i32 2
  %21 = load i32, ptr %20, align 8
  %22 = lshr i32 %21, 11
  br label %29

23:                                               ; preds = %1
  %24 = load ptr, ptr %2, align 8, !tbaa !8
  %25 = call ptr @Ivy_ObjFanin1(ptr noundef %24)
  %26 = getelementptr inbounds nuw %struct.Ivy_Obj_t_, ptr %25, i32 0, i32 2
  %27 = load i32, ptr %26, align 8
  %28 = lshr i32 %27, 11
  br label %29

29:                                               ; preds = %23, %17
  %30 = phi i32 [ %22, %17 ], [ %28, %23 ]
  %31 = add nsw i32 %5, %30
  ret i32 %31
}