; Function Attrs: inlinehint mustprogress nofree norecurse nosync nounwind willreturn memory(read, inaccessiblemem: none) uwtable
define internal fastcc range(i32 1, 2097154) i32 @Ivy_ObjLevelNew(ptr noundef readonly captures(none) %0) unnamed_addr #5 {
  %2 = getelementptr i8, ptr %0, i64 8
  %.val8 = load i32, ptr %2, align 8
  %3 = and i32 %.val8, 15
  %4 = icmp eq i32 %3, 6
  %5 = getelementptr i8, ptr %0, i64 16
  %.val5 = load ptr, ptr %5, align 8, !tbaa !18
  %6 = ptrtoint ptr %.val5 to i64
  %7 = and i64 %6, -2
  %8 = inttoptr i64 %7 to ptr
  %9 = getelementptr inbounds nuw i8, ptr %8, i64 8
  %10 = load i32, ptr %9, align 8
  %11 = lshr i32 %10, 11
  %12 = getelementptr i8, ptr %0, i64 24
  %.val7 = load ptr, ptr %12, align 8, !tbaa !19
  %13 = ptrtoint ptr %.val7 to i64
  %14 = and i64 %13, -2
  %15 = inttoptr i64 %14 to ptr
  %16 = getelementptr inbounds nuw i8, ptr %15, i64 8
  %17 = load i32, ptr %16, align 8
  %18 = lshr i32 %17, 11
  %19 = icmp samesign ugt i32 %11, %18
  %spec.select = select i1 %19, ptr %8, ptr %15
  %.in.in = getelementptr inbounds nuw i8, ptr %spec.select, i64 8
  %.in = load i32, ptr %.in.in, align 8
  %20 = lshr i32 %.in, 11
  %21 = select i1 %4, i32 2, i32 1
  %22 = add nuw nsw i32 %20, %21
  ret i32 %22
}